(lp0
ccopy_reg
_reconstructor
p1
(calunos
alunoReg
p2
c__builtin__
tuple
p3
(I4
S'Rui'
p4
tp5
tp6
Rp7
ccollections
OrderedDict
p8
((lp9
(lp10
S'id'
p11
aI4
aa(lp12
S'nome'
p13
ag4
aatp14
Rp15
bag1
(g2
g3
(I10
S'Paulo'
p16
tp17
tp18
Rp19
g8
((lp20
(lp21
g11
aI10
aa(lp22
g13
ag16
aatp23
Rp24
bag1
(g2
g3
(I12
S'Pedro'
p25
tp26
tp27
Rp28
g8
((lp29
(lp30
g11
aI12
aa(lp31
g13
ag25
aatp32
Rp33
ba.